target datalayout = "e-m:e-p270:32:32-p271:32:32-p272:64:64-i64:64-i128:128-f80:128-n8:16:32:64-S128"
target triple = "x86_64-pc-linux-gnu"

%"struct.cv::QRCodeEncoder::Params" = type { i32, i32, i32, i32 }
%"class.cv::QRCodeEncoderImpl" = type { %"class.cv::QRCodeEncoder", %"struct.cv::QRCodeEncoder::Params", i32, i32, i32, i32, i32, i32, %"class.std::vector.3", %"class.std::vector.3", %"class.std::vector.3", %"class.std::vector.3", %"class.cv::Mat", %"class.cv::Mat", i8, i8, i8, %"class.std::vector.8", ptr, ptr }
%"class.cv::QRCodeEncoder" = type { ptr }
%"class.std::vector.3" = type { %"struct.std::_Vector_base.4" }
%"struct.std::_Vector_base.4" = type { %"struct.std::_Vector_base<unsigned char, std::allocator<unsigned char>>::_Vector_impl" }
%"struct.std::_Vector_base<unsigned char, std::allocator<unsigned char>>::_Vector_impl" = type { %"struct.std::_Vector_base<unsigned char, std::allocator<unsigned char>>::_Vector_impl_data" }
%"struct.std::_Vector_base<unsigned char, std::allocator<unsigned char>>::_Vector_impl_data" = type { ptr, ptr, ptr }
%"class.cv::Mat" = type { i32, i32, i32, i32, ptr, ptr, ptr, ptr, ptr, ptr, %"struct.cv::MatSize", %"struct.cv::MatStep" }
%"struct.cv::MatSize" = type { ptr }
%"struct.cv::MatStep" = type { ptr, [2 x i64] }
%"class.std::vector.8" = type { %"struct.std::_Vector_base.9" }
%"struct.std::_Vector_base.9" = type { %"struct.std::_Vector_base<cv::Mat, std::allocator<cv::Mat>>::_Vector_impl" }
%"struct.std::_Vector_base<cv::Mat, std::allocator<cv::Mat>>::_Vector_impl" = type { %"struct.std::_Vector_base<cv::Mat, std::allocator<cv::Mat>>::_Vector_impl_data" }
%"struct.std::_Vector_base<cv::Mat, std::allocator<cv::Mat>>::_Vector_impl_data" = type { ptr, ptr, ptr }

; Function Attrs: inlinehint mustprogress nounwind uwtable
define linkonce_odr hidden noundef nonnull align 1 dereferenceable(1) ptr @_ZN2cv3Mat2atIhEERT_ii(ptr noundef nonnull align 8 dereferenceable(96) %0, i32 noundef %1, i32 noundef %2) #5 comdat align 2 {
  %4 = alloca ptr, align 8
  %5 = alloca i32, align 4
  %6 = alloca i32, align 4
  store ptr %0, ptr %4, align 8, !tbaa !113
  store i32 %1, ptr %5, align 4, !tbaa !29
  store i32 %2, ptr %6, align 4, !tbaa !29
  %7 = load ptr, ptr %4, align 8
  %8 = getelementptr inbounds nuw %"class.cv::Mat", ptr %7, i32 0, i32 4
  %9 = load ptr, ptr %8, align 8, !tbaa !190
  %10 = getelementptr inbounds nuw %"class.cv::Mat", ptr %7, i32 0, i32 11
  %11 = getelementptr inbounds nuw %"struct.cv::MatStep", ptr %10, i32 0, i32 0
  %12 = load ptr, ptr %11, align 8, !tbaa !191
  %13 = getelementptr inbounds i64, ptr %12, i64 0
  %14 = load i64, ptr %13, align 8, !tbaa !82
  %15 = load i32, ptr %5, align 4, !tbaa !29
  %16 = sext i32 %15 to i64
  %17 = mul i64 %14, %16
  %18 = getelementptr inbounds nuw i8, ptr %9, i64 %17
  %19 = load i32, ptr %6, align 4, !tbaa !29
  %20 = sext i32 %19 to i64
  %21 = getelementptr inbounds i8, ptr %18, i64 %20
  ret ptr %21
}

; Function Attrs: mustprogress uwtable
define hidden noundef zeroext i1 @_ZN2cv17QRCodeEncoderImpl8writeBitEiib(ptr noundef nonnull align 8 dereferenceable(384) %0, i32 noundef %1, i32 noundef %2, i1 noundef zeroext %3) #2 align 2 {
  %5 = alloca i1, align 1
  %6 = alloca ptr, align 8
  %7 = alloca i32, align 4
  %8 = alloca i32, align 4
  %9 = alloca i8, align 1
  store ptr %0, ptr %6, align 8, !tbaa !20
  store i32 %1, ptr %7, align 4, !tbaa !29
  store i32 %2, ptr %8, align 4, !tbaa !29
  %10 = zext i1 %3 to i8
  store i8 %10, ptr %9, align 1, !tbaa !100
  %11 = load ptr, ptr %6, align 8
  %12 = getelementptr inbounds nuw %"class.cv::QRCodeEncoderImpl", ptr %11, i32 0, i32 12
  %13 = load i32, ptr %8, align 4, !tbaa !29
  %14 = load i32, ptr %7, align 4, !tbaa !29
  %15 = call noundef nonnull align 1 dereferenceable(1) ptr @_ZN2cv3Mat2atIhEERT_ii(ptr noundef nonnull align 8 dereferenceable(96) %12, i32 noundef %13, i32 noundef %14)
  %16 = load i8, ptr %15, align 1, !tbaa !83
  %17 = zext i8 %16 to i32
  %18 = icmp eq i32 %17, 110
  br i1 %18, label %19, label %20

19:                                               ; preds = %4
  store i1 false, ptr %5, align 1
  br label %51

20:                                               ; preds = %4
  %21 = load i8, ptr %9, align 1, !tbaa !100, !range !163, !noundef !164
  %22 = trunc i8 %21 to i1
  br i1 %22, label %32, label %23

23:                                               ; preds = %20
  %24 = getelementptr inbounds nuw %"class.cv::QRCodeEncoderImpl", ptr %11, i32 0, i32 12
  %25 = load i32, ptr %8, align 4, !tbaa !29
  %26 = load i32, ptr %7, align 4, !tbaa !29
  %27 = call noundef nonnull align 1 dereferenceable(1) ptr @_ZN2cv3Mat2atIhEERT_ii(ptr noundef nonnull align 8 dereferenceable(96) %24, i32 noundef %25, i32 noundef %26)
  store i8 0, ptr %27, align 1, !tbaa !83
  %28 = getelementptr inbounds nuw %"class.cv::QRCodeEncoderImpl", ptr %11, i32 0, i32 13
  %29 = load i32, ptr %8, align 4, !tbaa !29
  %30 = load i32, ptr %7, align 4, !tbaa !29
  %31 = call noundef nonnull align 1 dereferenceable(1) ptr @_ZN2cv3Mat2atIhEERT_ii(ptr noundef nonnull align 8 dereferenceable(96) %28, i32 noundef %29, i32 noundef %30)
  store i8 0, ptr %31, align 1, !tbaa !83
  br label %32

32:                                               ; preds = %23, %20
  %33 = load i8, ptr %9, align 1, !tbaa !100, !range !163, !noundef !164
  %34 = trunc i8 %33 to i1
  %35 = zext i1 %34 to i32
  %36 = mul nsw i32 255, %35
  %37 = trunc i32 %36 to i8
  %38 = getelementptr inbounds nuw %"class.cv::QRCodeEncoderImpl", ptr %11, i32 0, i32 12
  %39 = load i32, ptr %8, align 4, !tbaa !29
  %40 = load i32, ptr %7, align 4, !tbaa !29
  %41 = call noundef nonnull align 1 dereferenceable(1) ptr @_ZN2cv3Mat2atIhEERT_ii(ptr noundef nonnull align 8 dereferenceable(96) %38, i32 noundef %39, i32 noundef %40)
  store i8 %37, ptr %41, align 1, !tbaa !83
  %42 = load i8, ptr %9, align 1, !tbaa !100, !range !163, !noundef !164
  %43 = trunc i8 %42 to i1
  %44 = zext i1 %43 to i32
  %45 = mul nsw i32 255, %44
  %46 = trunc i32 %45 to i8
  %47 = getelementptr inbounds nuw %"class.cv::QRCodeEncoderImpl", ptr %11, i32 0, i32 13
  %48 = load i32, ptr %8, align 4, !tbaa !29
  %49 = load i32, ptr %7, align 4, !tbaa !29
  %50 = call noundef nonnull align 1 dereferenceable(1) ptr @_ZN2cv3Mat2atIhEERT_ii(ptr noundef nonnull align 8 dereferenceable(96) %47, i32 noundef %48, i32 noundef %49)
  store i8 %46, ptr %50, align 1, !tbaa !83
  store i1 true, ptr %5, align 1
  br label %51

51:                                               ; preds = %32, %19
  %52 = load i1, ptr %5, align 1
  ret i1 %52
}