; Function Attrs: mustprogress nofree norecurse nosync nounwind willreturn memory(readwrite, inaccessiblemem: none) uwtable
define hidden noundef zeroext i1 @_ZN2cv17QRCodeEncoderImpl8writeBitEiib(ptr noundef nonnull readonly align 8 captures(none) dereferenceable(384) %0, i32 noundef %1, i32 noundef %2, i1 noundef zeroext %3) local_unnamed_addr #14 align 2 {
  %5 = getelementptr inbounds nuw i8, ptr %0, i64 160
  %6 = load ptr, ptr %5, align 8, !tbaa !166
  %7 = getelementptr inbounds nuw i8, ptr %0, i64 216
  %8 = load ptr, ptr %7, align 8, !tbaa !167
  %9 = load i64, ptr %8, align 8, !tbaa !72
  %10 = sext i32 %2 to i64
  %11 = mul i64 %9, %10
  %12 = getelementptr inbounds nuw i8, ptr %6, i64 %11
  %13 = sext i32 %1 to i64
  %14 = getelementptr inbounds i8, ptr %12, i64 %13
  %15 = load i8, ptr %14, align 1, !tbaa !57
  %16 = icmp ne i8 %15, 110
  br i1 %16, label %17, label %40

17:                                               ; preds = %4
  br i1 %3, label %27, label %18

18:                                               ; preds = %17
  store i8 0, ptr %14, align 1, !tbaa !57
  %19 = getelementptr inbounds nuw i8, ptr %0, i64 256
  %20 = load ptr, ptr %19, align 8, !tbaa !166
  %21 = getelementptr inbounds nuw i8, ptr %0, i64 312
  %22 = load ptr, ptr %21, align 8, !tbaa !167
  %23 = load i64, ptr %22, align 8, !tbaa !72
  %24 = mul i64 %23, %10
  %25 = getelementptr inbounds nuw i8, ptr %20, i64 %24
  %26 = getelementptr inbounds i8, ptr %25, i64 %13
  store i8 0, ptr %26, align 1, !tbaa !57
  %.pre = load ptr, ptr %5, align 8, !tbaa !166
  %.pre14 = load ptr, ptr %7, align 8, !tbaa !167
  %.pre15 = load i64, ptr %.pre14, align 8, !tbaa !72
  %.pre16 = mul i64 %.pre15, %10
  br label %27

27:                                               ; preds = %18, %17
  %.pre-phi = phi i64 [ %.pre16, %18 ], [ %11, %17 ]
  %28 = phi ptr [ %.pre, %18 ], [ %6, %17 ]
  %29 = phi i8 [ 0, %18 ], [ -1, %17 ]
  %30 = getelementptr inbounds nuw i8, ptr %28, i64 %.pre-phi
  %31 = getelementptr inbounds i8, ptr %30, i64 %13
  store i8 %29, ptr %31, align 1, !tbaa !57
  %32 = getelementptr inbounds nuw i8, ptr %0, i64 256
  %33 = load ptr, ptr %32, align 8, !tbaa !166
  %34 = getelementptr inbounds nuw i8, ptr %0, i64 312
  %35 = load ptr, ptr %34, align 8, !tbaa !167
  %36 = load i64, ptr %35, align 8, !tbaa !72
  %37 = mul i64 %36, %10
  %38 = getelementptr inbounds nuw i8, ptr %33, i64 %37
  %39 = getelementptr inbounds i8, ptr %38, i64 %13
  store i8 %29, ptr %39, align 1, !tbaa !57
  br label %40

40:                                               ; preds = %4, %27
  ret i1 %16
}